target datalayout = "e-m:e-p270:32:32-p271:32:32-p272:64:64-i64:64-i128:128-f80:128-n8:16:32:64-S128"
target triple = "x86_64-pc-linux-gnu"

%"class.cv::KAZEFeatures" = type { %"struct.cv::KAZEOptions", %"class.std::vector", %"class.std::vector.0", i32, i8, %"class.std::vector.5", %"class.std::vector.10" }
%"struct.cv::KAZEOptions" = type <{ i32, float, i32, i32, i32, i32, float, float, float, float, i32, i8, i8, [2 x i8] }>
%"class.std::vector" = type { %"struct.std::_Vector_base" }
%"struct.std::_Vector_base" = type { %"struct.std::_Vector_base<cv::TEvolution, std::allocator<cv::TEvolution>>::_Vector_impl" }
%"struct.std::_Vector_base<cv::TEvolution, std::allocator<cv::TEvolution>>::_Vector_impl" = type { %"struct.std::_Vector_base<cv::TEvolution, std::allocator<cv::TEvolution>>::_Vector_impl_data" }
%"struct.std::_Vector_base<cv::TEvolution, std::allocator<cv::TEvolution>>::_Vector_impl_data" = type { ptr, ptr, ptr }
%"class.std::vector.0" = type { %"struct.std::_Vector_base.1" }
%"struct.std::_Vector_base.1" = type { %"struct.std::_Vector_base<std::vector<cv::KeyPoint>, std::allocator<std::vector<cv::KeyPoint>>>::_Vector_impl" }
%"struct.std::_Vector_base<std::vector<cv::KeyPoint>, std::allocator<std::vector<cv::KeyPoint>>>::_Vector_impl" = type { %"struct.std::_Vector_base<std::vector<cv::KeyPoint>, std::allocator<std::vector<cv::KeyPoint>>>::_Vector_impl_data" }
%"struct.std::_Vector_base<std::vector<cv::KeyPoint>, std::allocator<std::vector<cv::KeyPoint>>>::_Vector_impl_data" = type { ptr, ptr, ptr }
%"class.std::vector.5" = type { %"struct.std::_Vector_base.6" }
%"struct.std::_Vector_base.6" = type { %"struct.std::_Vector_base<std::vector<float>, std::allocator<std::vector<float>>>::_Vector_impl" }
%"struct.std::_Vector_base<std::vector<float>, std::allocator<std::vector<float>>>::_Vector_impl" = type { %"struct.std::_Vector_base<std::vector<float>, std::allocator<std::vector<float>>>::_Vector_impl_data" }
%"struct.std::_Vector_base<std::vector<float>, std::allocator<std::vector<float>>>::_Vector_impl_data" = type { ptr, ptr, ptr }
%"class.std::vector.10" = type { %"struct.std::_Vector_base.11" }
%"struct.std::_Vector_base.11" = type { %"struct.std::_Vector_base<int, std::allocator<int>>::_Vector_impl" }
%"struct.std::_Vector_base<int, std::allocator<int>>::_Vector_impl" = type { %"struct.std::_Vector_base<int, std::allocator<int>>::_Vector_impl_data" }
%"struct.std::_Vector_base<int, std::allocator<int>>::_Vector_impl_data" = type { ptr, ptr, ptr }

; Function Attrs: mustprogress uwtable
define hidden void @_ZN2cv12KAZEFeatures17Compute_KContrastERKNS_3MatERKf(ptr noundef nonnull align 8 dereferenceable(152) %0, ptr noundef nonnull align 8 dereferenceable(96) %1, ptr noundef nonnull align 4 dereferenceable(4) %2) #0 align 2 {
  %4 = alloca ptr, align 8
  %5 = alloca ptr, align 8
  %6 = alloca ptr, align 8
  store ptr %0, ptr %4, align 8, !tbaa !3
  store ptr %1, ptr %5, align 8, !tbaa !84
  store ptr %2, ptr %6, align 8, !tbaa !121
  %7 = load ptr, ptr %4, align 8
  %8 = load ptr, ptr %5, align 8, !tbaa !84
  %9 = load ptr, ptr %6, align 8, !tbaa !121
  %10 = load float, ptr %9, align 4, !tbaa !13
  %11 = getelementptr inbounds nuw %"class.cv::KAZEFeatures", ptr %7, i32 0, i32 0
  %12 = getelementptr inbounds nuw %"struct.cv::KAZEOptions", ptr %11, i32 0, i32 6
  %13 = load float, ptr %12, align 8, !tbaa !107
  %14 = getelementptr inbounds nuw %"class.cv::KAZEFeatures", ptr %7, i32 0, i32 0
  %15 = getelementptr inbounds nuw %"struct.cv::KAZEOptions", ptr %14, i32 0, i32 10
  %16 = load i32, ptr %15, align 8, !tbaa !122
  %17 = call noundef float @_ZN2cv20compute_k_percentileERKNS_3MatEffiii(ptr noundef nonnull align 8 dereferenceable(96) %8, float noundef %10, float noundef %13, i32 noundef %16, i32 noundef 0, i32 noundef 0)
  %18 = getelementptr inbounds nuw %"class.cv::KAZEFeatures", ptr %7, i32 0, i32 0
  %19 = getelementptr inbounds nuw %"struct.cv::KAZEOptions", ptr %18, i32 0, i32 8
  store float %17, ptr %19, align 8, !tbaa !111
  ret void
}