; Function Attrs: mustprogress uwtable
define hidden void @_ZN2cv12KAZEFeatures17Compute_KContrastERKNS_3MatERKf(ptr noundef nonnull align 8 captures(none) dereferenceable(152) initializes((32, 36)) %0, ptr noundef nonnull align 8 dereferenceable(96) %1, ptr noundef nonnull readonly align 4 captures(none) dereferenceable(4) %2) local_unnamed_addr #0 align 2 {
  %4 = load float, ptr %2, align 4, !tbaa !8
  %5 = getelementptr inbounds nuw i8, ptr %0, i64 24
  %6 = load float, ptr %5, align 8, !tbaa !108
  %7 = getelementptr inbounds nuw i8, ptr %0, i64 40
  %8 = load i32, ptr %7, align 8, !tbaa !109
  %9 = tail call noundef float @_ZN2cv20compute_k_percentileERKNS_3MatEffiii(ptr noundef nonnull align 8 dereferenceable(96) %1, float noundef %4, float noundef %6, i32 noundef %8, i32 noundef 0, i32 noundef 0)
  %10 = getelementptr inbounds nuw i8, ptr %0, i64 32
  store float %9, ptr %10, align 8, !tbaa !110
  ret void
}